; Function Attrs: mustprogress nofree norecurse nosync nounwind willreturn memory(argmem: readwrite) uwtable
define void @_ZNK11b2EdgeShape11ComputeMassEP10b2MassDataf(ptr nocapture noundef nonnull readonly align 8 dereferenceable(49) %this, ptr nocapture noundef writeonly %massData, float %density) unnamed_addr #5 align 2 {
entry:
  store float 0.000000e+00, ptr %massData, align 4
  %m_vertex1 = getelementptr inbounds i8, ptr %this, i64 16
  %m_vertex2 = getelementptr inbounds i8, ptr %this, i64 24
  %0 = load <2 x float>, ptr %m_vertex1, align 8
  %1 = load <2 x float>, ptr %m_vertex2, align 8
  %2 = fadd <2 x float> %0, %1
  %3 = fmul <2 x float> %2, <float 5.000000e-01, float 5.000000e-01>
  %center = getelementptr inbounds i8, ptr %massData, i64 4
  store <2 x float> %3, ptr %center, align 4
  %I = getelementptr inbounds i8, ptr %massData, i64 12
  store float 0.000000e+00, ptr %I, align 4
  ret void
}